target datalayout = "e-m:e-p270:32:32-p271:32:32-p272:64:64-i64:64-i128:128-f80:128-n8:16:32:64-S128"
target triple = "x86_64-pc-linux-gnu"

%struct.lzx_stream = type { ptr, i64, i64, ptr, i64, i64, ptr }
%struct.lzx_br = type { i64, i32, i8, i8 }

; Function Attrs: inlinehint nounwind uwtable
define internal zeroext i16 @archive_le16dec(ptr noundef %0) #7 {
  %2 = alloca ptr, align 8
  %3 = alloca ptr, align 8
  %4 = alloca i32, align 4
  %5 = alloca i32, align 4
  store ptr %0, ptr %2, align 8, !tbaa !95
  call void @llvm.lifetime.start.p0(i64 8, ptr %3) #11
  %6 = load ptr, ptr %2, align 8, !tbaa !95
  store ptr %6, ptr %3, align 8, !tbaa !33
  call void @llvm.lifetime.start.p0(i64 4, ptr %4) #11
  %7 = load ptr, ptr %3, align 8, !tbaa !33
  %8 = getelementptr inbounds i8, ptr %7, i64 1
  %9 = load i8, ptr %8, align 1, !tbaa !34
  %10 = zext i8 %9 to i32
  store i32 %10, ptr %4, align 4, !tbaa !11
  call void @llvm.lifetime.start.p0(i64 4, ptr %5) #11
  %11 = load ptr, ptr %3, align 8, !tbaa !33
  %12 = getelementptr inbounds i8, ptr %11, i64 0
  %13 = load i8, ptr %12, align 1, !tbaa !34
  %14 = zext i8 %13 to i32
  store i32 %14, ptr %5, align 4, !tbaa !11
  %15 = load i32, ptr %4, align 4, !tbaa !11
  %16 = shl i32 %15, 8
  %17 = load i32, ptr %5, align 4, !tbaa !11
  %18 = or i32 %16, %17
  %19 = trunc i32 %18 to i16
  call void @llvm.lifetime.end.p0(i64 4, ptr %5) #11
  call void @llvm.lifetime.end.p0(i64 4, ptr %4) #11
  call void @llvm.lifetime.end.p0(i64 8, ptr %3) #11
  ret i16 %19
}

; Function Attrs: nounwind uwtable
define internal i32 @lzx_br_fillup(ptr noundef %0, ptr noundef %1) #0 {
  %3 = alloca i32, align 4
  %4 = alloca ptr, align 8
  %5 = alloca ptr, align 8
  %6 = alloca i32, align 4
  %7 = alloca i32, align 4
  store ptr %0, ptr %4, align 8, !tbaa !180
  store ptr %1, ptr %5, align 8, !tbaa !223
  call void @llvm.lifetime.start.p0(i64 4, ptr %6) #11
  %8 = load ptr, ptr %5, align 8, !tbaa !223
  %9 = getelementptr inbounds nuw %struct.lzx_br, ptr %8, i32 0, i32 1
  %10 = load i32, ptr %9, align 8, !tbaa !225
  %11 = sext i32 %10 to i64
  %12 = sub i64 64, %11
  %13 = trunc i64 %12 to i32
  store i32 %13, ptr %6, align 4, !tbaa !11
  br label %14

14:                                               ; preds = %203, %2
  %15 = load i32, ptr %6, align 4, !tbaa !11
  %16 = ashr i32 %15, 4
  switch i32 %16, label %177 [
    i32 4, label %17
    i32 3, label %104
    i32 0, label %176
  ]

17:                                               ; preds = %14
  %18 = load ptr, ptr %4, align 8, !tbaa !180
  %19 = getelementptr inbounds nuw %struct.lzx_stream, ptr %18, i32 0, i32 1
  %20 = load i64, ptr %19, align 8, !tbaa !208
  %21 = icmp sge i64 %20, 8
  br i1 %21, label %22, label %103

22:                                               ; preds = %17
  %23 = load ptr, ptr %4, align 8, !tbaa !180
  %24 = getelementptr inbounds nuw %struct.lzx_stream, ptr %23, i32 0, i32 0
  %25 = load ptr, ptr %24, align 8, !tbaa !228
  %26 = getelementptr inbounds i8, ptr %25, i64 1
  %27 = load i8, ptr %26, align 1, !tbaa !34
  %28 = zext i8 %27 to i64
  %29 = shl i64 %28, 56
  %30 = load ptr, ptr %4, align 8, !tbaa !180
  %31 = getelementptr inbounds nuw %struct.lzx_stream, ptr %30, i32 0, i32 0
  %32 = load ptr, ptr %31, align 8, !tbaa !228
  %33 = getelementptr inbounds i8, ptr %32, i64 0
  %34 = load i8, ptr %33, align 1, !tbaa !34
  %35 = zext i8 %34 to i64
  %36 = shl i64 %35, 48
  %37 = or i64 %29, %36
  %38 = load ptr, ptr %4, align 8, !tbaa !180
  %39 = getelementptr inbounds nuw %struct.lzx_stream, ptr %38, i32 0, i32 0
  %40 = load ptr, ptr %39, align 8, !tbaa !228
  %41 = getelementptr inbounds i8, ptr %40, i64 3
  %42 = load i8, ptr %41, align 1, !tbaa !34
  %43 = zext i8 %42 to i64
  %44 = shl i64 %43, 40
  %45 = or i64 %37, %44
  %46 = load ptr, ptr %4, align 8, !tbaa !180
  %47 = getelementptr inbounds nuw %struct.lzx_stream, ptr %46, i32 0, i32 0
  %48 = load ptr, ptr %47, align 8, !tbaa !228
  %49 = getelementptr inbounds i8, ptr %48, i64 2
  %50 = load i8, ptr %49, align 1, !tbaa !34
  %51 = zext i8 %50 to i64
  %52 = shl i64 %51, 32
  %53 = or i64 %45, %52
  %54 = load ptr, ptr %4, align 8, !tbaa !180
  %55 = getelementptr inbounds nuw %struct.lzx_stream, ptr %54, i32 0, i32 0
  %56 = load ptr, ptr %55, align 8, !tbaa !228
  %57 = getelementptr inbounds i8, ptr %56, i64 5
  %58 = load i8, ptr %57, align 1, !tbaa !34
  %59 = zext i8 %58 to i32
  %60 = shl i32 %59, 24
  %61 = zext i32 %60 to i64
  %62 = or i64 %53, %61
  %63 = load ptr, ptr %4, align 8, !tbaa !180
  %64 = getelementptr inbounds nuw %struct.lzx_stream, ptr %63, i32 0, i32 0
  %65 = load ptr, ptr %64, align 8, !tbaa !228
  %66 = getelementptr inbounds i8, ptr %65, i64 4
  %67 = load i8, ptr %66, align 1, !tbaa !34
  %68 = zext i8 %67 to i32
  %69 = shl i32 %68, 16
  %70 = zext i32 %69 to i64
  %71 = or i64 %62, %70
  %72 = load ptr, ptr %4, align 8, !tbaa !180
  %73 = getelementptr inbounds nuw %struct.lzx_stream, ptr %72, i32 0, i32 0
  %74 = load ptr, ptr %73, align 8, !tbaa !228
  %75 = getelementptr inbounds i8, ptr %74, i64 7
  %76 = load i8, ptr %75, align 1, !tbaa !34
  %77 = zext i8 %76 to i32
  %78 = shl i32 %77, 8
  %79 = zext i32 %78 to i64
  %80 = or i64 %71, %79
  %81 = load ptr, ptr %4, align 8, !tbaa !180
  %82 = getelementptr inbounds nuw %struct.lzx_stream, ptr %81, i32 0, i32 0
  %83 = load ptr, ptr %82, align 8, !tbaa !228
  %84 = getelementptr inbounds i8, ptr %83, i64 6
  %85 = load i8, ptr %84, align 1, !tbaa !34
  %86 = zext i8 %85 to i32
  %87 = zext i32 %86 to i64
  %88 = or i64 %80, %87
  %89 = load ptr, ptr %5, align 8, !tbaa !223
  %90 = getelementptr inbounds nuw %struct.lzx_br, ptr %89, i32 0, i32 0
  store i64 %88, ptr %90, align 8, !tbaa !227
  %91 = load ptr, ptr %4, align 8, !tbaa !180
  %92 = getelementptr inbounds nuw %struct.lzx_stream, ptr %91, i32 0, i32 0
  %93 = load ptr, ptr %92, align 8, !tbaa !228
  %94 = getelementptr inbounds i8, ptr %93, i64 8
  store ptr %94, ptr %92, align 8, !tbaa !228
  %95 = load ptr, ptr %4, align 8, !tbaa !180
  %96 = getelementptr inbounds nuw %struct.lzx_stream, ptr %95, i32 0, i32 1
  %97 = load i64, ptr %96, align 8, !tbaa !208
  %98 = sub nsw i64 %97, 8
  store i64 %98, ptr %96, align 8, !tbaa !208
  %99 = load ptr, ptr %5, align 8, !tbaa !223
  %100 = getelementptr inbounds nuw %struct.lzx_br, ptr %99, i32 0, i32 1
  %101 = load i32, ptr %100, align 8, !tbaa !225
  %102 = add nsw i32 %101, 64
  store i32 %102, ptr %100, align 8, !tbaa !225
  store i32 1, ptr %3, align 4
  store i32 1, ptr %7, align 4
  br label %230

103:                                              ; preds = %17
  br label %178

104:                                              ; preds = %14
  %105 = load ptr, ptr %4, align 8, !tbaa !180
  %106 = getelementptr inbounds nuw %struct.lzx_stream, ptr %105, i32 0, i32 1
  %107 = load i64, ptr %106, align 8, !tbaa !208
  %108 = icmp sge i64 %107, 6
  br i1 %108, label %109, label %175

109:                                              ; preds = %104
  %110 = load ptr, ptr %5, align 8, !tbaa !223
  %111 = getelementptr inbounds nuw %struct.lzx_br, ptr %110, i32 0, i32 0
  %112 = load i64, ptr %111, align 8, !tbaa !227
  %113 = shl i64 %112, 48
  %114 = load ptr, ptr %4, align 8, !tbaa !180
  %115 = getelementptr inbounds nuw %struct.lzx_stream, ptr %114, i32 0, i32 0
  %116 = load ptr, ptr %115, align 8, !tbaa !228
  %117 = getelementptr inbounds i8, ptr %116, i64 1
  %118 = load i8, ptr %117, align 1, !tbaa !34
  %119 = zext i8 %118 to i64
  %120 = shl i64 %119, 40
  %121 = or i64 %113, %120
  %122 = load ptr, ptr %4, align 8, !tbaa !180
  %123 = getelementptr inbounds nuw %struct.lzx_stream, ptr %122, i32 0, i32 0
  %124 = load ptr, ptr %123, align 8, !tbaa !228
  %125 = getelementptr inbounds i8, ptr %124, i64 0
  %126 = load i8, ptr %125, align 1, !tbaa !34
  %127 = zext i8 %126 to i64
  %128 = shl i64 %127, 32
  %129 = or i64 %121, %128
  %130 = load ptr, ptr %4, align 8, !tbaa !180
  %131 = getelementptr inbounds nuw %struct.lzx_stream, ptr %130, i32 0, i32 0
  %132 = load ptr, ptr %131, align 8, !tbaa !228
  %133 = getelementptr inbounds i8, ptr %132, i64 3
  %134 = load i8, ptr %133, align 1, !tbaa !34
  %135 = zext i8 %134 to i64
  %136 = shl i64 %135, 24
  %137 = or i64 %129, %136
  %138 = load ptr, ptr %4, align 8, !tbaa !180
  %139 = getelementptr inbounds nuw %struct.lzx_stream, ptr %138, i32 0, i32 0
  %140 = load ptr, ptr %139, align 8, !tbaa !228
  %141 = getelementptr inbounds i8, ptr %140, i64 2
  %142 = load i8, ptr %141, align 1, !tbaa !34
  %143 = zext i8 %142 to i64
  %144 = shl i64 %143, 16
  %145 = or i64 %137, %144
  %146 = load ptr, ptr %4, align 8, !tbaa !180
  %147 = getelementptr inbounds nuw %struct.lzx_stream, ptr %146, i32 0, i32 0
  %148 = load ptr, ptr %147, align 8, !tbaa !228
  %149 = getelementptr inbounds i8, ptr %148, i64 5
  %150 = load i8, ptr %149, align 1, !tbaa !34
  %151 = zext i8 %150 to i64
  %152 = shl i64 %151, 8
  %153 = or i64 %145, %152
  %154 = load ptr, ptr %4, align 8, !tbaa !180
  %155 = getelementptr inbounds nuw %struct.lzx_stream, ptr %154, i32 0, i32 0
  %156 = load ptr, ptr %155, align 8, !tbaa !228
  %157 = getelementptr inbounds i8, ptr %156, i64 4
  %158 = load i8, ptr %157, align 1, !tbaa !34
  %159 = zext i8 %158 to i64
  %160 = or i64 %153, %159
  %161 = load ptr, ptr %5, align 8, !tbaa !223
  %162 = getelementptr inbounds nuw %struct.lzx_br, ptr %161, i32 0, i32 0
  store i64 %160, ptr %162, align 8, !tbaa !227
  %163 = load ptr, ptr %4, align 8, !tbaa !180
  %164 = getelementptr inbounds nuw %struct.lzx_stream, ptr %163, i32 0, i32 0
  %165 = load ptr, ptr %164, align 8, !tbaa !228
  %166 = getelementptr inbounds i8, ptr %165, i64 6
  store ptr %166, ptr %164, align 8, !tbaa !228
  %167 = load ptr, ptr %4, align 8, !tbaa !180
  %168 = getelementptr inbounds nuw %struct.lzx_stream, ptr %167, i32 0, i32 1
  %169 = load i64, ptr %168, align 8, !tbaa !208
  %170 = sub nsw i64 %169, 6
  store i64 %170, ptr %168, align 8, !tbaa !208
  %171 = load ptr, ptr %5, align 8, !tbaa !223
  %172 = getelementptr inbounds nuw %struct.lzx_br, ptr %171, i32 0, i32 1
  %173 = load i32, ptr %172, align 8, !tbaa !225
  %174 = add nsw i32 %173, 48
  store i32 %174, ptr %172, align 8, !tbaa !225
  store i32 1, ptr %3, align 4
  store i32 1, ptr %7, align 4
  br label %230

175:                                              ; preds = %104
  br label %178

176:                                              ; preds = %14
  store i32 1, ptr %3, align 4
  store i32 1, ptr %7, align 4
  br label %230

177:                                              ; preds = %14
  br label %178

178:                                              ; preds = %177, %175, %103
  %179 = load ptr, ptr %4, align 8, !tbaa !180
  %180 = getelementptr inbounds nuw %struct.lzx_stream, ptr %179, i32 0, i32 1
  %181 = load i64, ptr %180, align 8, !tbaa !208
  %182 = icmp slt i64 %181, 2
  br i1 %182, label %183, label %203

183:                                              ; preds = %178
  %184 = load ptr, ptr %4, align 8, !tbaa !180
  %185 = getelementptr inbounds nuw %struct.lzx_stream, ptr %184, i32 0, i32 1
  %186 = load i64, ptr %185, align 8, !tbaa !208
  %187 = icmp eq i64 %186, 1
  br i1 %187, label %188, label %202

188:                                              ; preds = %183
  %189 = load ptr, ptr %4, align 8, !tbaa !180
  %190 = getelementptr inbounds nuw %struct.lzx_stream, ptr %189, i32 0, i32 0
  %191 = load ptr, ptr %190, align 8, !tbaa !228
  %192 = getelementptr inbounds nuw i8, ptr %191, i32 1
  store ptr %192, ptr %190, align 8, !tbaa !228
  %193 = load i8, ptr %191, align 1, !tbaa !34
  %194 = load ptr, ptr %5, align 8, !tbaa !223
  %195 = getelementptr inbounds nuw %struct.lzx_br, ptr %194, i32 0, i32 2
  store i8 %193, ptr %195, align 4, !tbaa !229
  %196 = load ptr, ptr %4, align 8, !tbaa !180
  %197 = getelementptr inbounds nuw %struct.lzx_stream, ptr %196, i32 0, i32 1
  %198 = load i64, ptr %197, align 8, !tbaa !208
  %199 = add nsw i64 %198, -1
  store i64 %199, ptr %197, align 8, !tbaa !208
  %200 = load ptr, ptr %5, align 8, !tbaa !223
  %201 = getelementptr inbounds nuw %struct.lzx_br, ptr %200, i32 0, i32 3
  store i8 1, ptr %201, align 1, !tbaa !226
  br label %202

202:                                              ; preds = %188, %183
  store i32 0, ptr %3, align 4
  store i32 1, ptr %7, align 4
  br label %230

203:                                              ; preds = %178
  %204 = load ptr, ptr %5, align 8, !tbaa !223
  %205 = getelementptr inbounds nuw %struct.lzx_br, ptr %204, i32 0, i32 0
  %206 = load i64, ptr %205, align 8, !tbaa !227
  %207 = shl i64 %206, 16
  %208 = load ptr, ptr %4, align 8, !tbaa !180
  %209 = getelementptr inbounds nuw %struct.lzx_stream, ptr %208, i32 0, i32 0
  %210 = load ptr, ptr %209, align 8, !tbaa !228
  %211 = call zeroext i16 @archive_le16dec(ptr noundef %210)
  %212 = zext i16 %211 to i64
  %213 = or i64 %207, %212
  %214 = load ptr, ptr %5, align 8, !tbaa !223
  %215 = getelementptr inbounds nuw %struct.lzx_br, ptr %214, i32 0, i32 0
  store i64 %213, ptr %215, align 8, !tbaa !227
  %216 = load ptr, ptr %4, align 8, !tbaa !180
  %217 = getelementptr inbounds nuw %struct.lzx_stream, ptr %216, i32 0, i32 0
  %218 = load ptr, ptr %217, align 8, !tbaa !228
  %219 = getelementptr inbounds i8, ptr %218, i64 2
  store ptr %219, ptr %217, align 8, !tbaa !228
  %220 = load ptr, ptr %4, align 8, !tbaa !180
  %221 = getelementptr inbounds nuw %struct.lzx_stream, ptr %220, i32 0, i32 1
  %222 = load i64, ptr %221, align 8, !tbaa !208
  %223 = sub nsw i64 %222, 2
  store i64 %223, ptr %221, align 8, !tbaa !208
  %224 = load ptr, ptr %5, align 8, !tbaa !223
  %225 = getelementptr inbounds nuw %struct.lzx_br, ptr %224, i32 0, i32 1
  %226 = load i32, ptr %225, align 8, !tbaa !225
  %227 = add nsw i32 %226, 16
  store i32 %227, ptr %225, align 8, !tbaa !225
  %228 = load i32, ptr %6, align 4, !tbaa !11
  %229 = sub nsw i32 %228, 16
  store i32 %229, ptr %6, align 4, !tbaa !11
  br label %14

230:                                              ; preds = %202, %176, %109, %22
  call void @llvm.lifetime.end.p0(i64 4, ptr %6) #11
  %231 = load i32, ptr %3, align 4
  ret i32 %231
}