; Function Attrs: nofree norecurse nosync nounwind memory(read, argmem: readwrite, inaccessiblemem: none) uwtable
define internal fastcc range(i32 0, 2) i32 @lzx_br_fillup(ptr noundef captures(none) %0, ptr noundef captures(none) %1) unnamed_addr #14 {
  %3 = getelementptr inbounds nuw i8, ptr %1, i64 8
  %4 = load i32, ptr %3, align 8, !tbaa !183
  %5 = sub i32 64, %4
  %6 = getelementptr inbounds nuw i8, ptr %0, i64 8
  br label %7

7:                                                ; preds = %99, %2
  %8 = phi i32 [ %4, %2 ], [ %107, %99 ]
  %.0 = phi i32 [ %5, %2 ], [ %108, %99 ]
  %9 = ashr i32 %.0, 4
  switch i32 %9, label %._crit_edge [
    i32 4, label %10
    i32 3, label %50
    i32 0, label %.loopexit
  ]

._crit_edge:                                      ; preds = %7
  %.pre = load i64, ptr %6, align 8, !tbaa !188
  br label %88

10:                                               ; preds = %7
  %11 = load i64, ptr %6, align 8, !tbaa !188
  %12 = icmp sgt i64 %11, 7
  br i1 %12, label %13, label %88

13:                                               ; preds = %10
  %14 = load ptr, ptr %0, align 8, !tbaa !187
  %15 = load i16, ptr %14, align 1
  %16 = zext i16 %15 to i64
  %17 = shl nuw i64 %16, 48
  %18 = getelementptr inbounds nuw i8, ptr %14, i64 3
  %19 = load i8, ptr %18, align 1, !tbaa !4
  %20 = zext i8 %19 to i64
  %21 = shl nuw nsw i64 %20, 40
  %22 = or disjoint i64 %21, %17
  %23 = getelementptr inbounds nuw i8, ptr %14, i64 2
  %24 = load i8, ptr %23, align 1, !tbaa !4
  %25 = zext i8 %24 to i64
  %26 = shl nuw nsw i64 %25, 32
  %27 = or disjoint i64 %22, %26
  %28 = getelementptr inbounds nuw i8, ptr %14, i64 5
  %29 = load i8, ptr %28, align 1, !tbaa !4
  %30 = zext i8 %29 to i64
  %31 = shl nuw nsw i64 %30, 24
  %32 = or disjoint i64 %27, %31
  %33 = getelementptr inbounds nuw i8, ptr %14, i64 4
  %34 = load i8, ptr %33, align 1, !tbaa !4
  %35 = zext i8 %34 to i64
  %36 = shl nuw nsw i64 %35, 16
  %37 = or disjoint i64 %32, %36
  %38 = getelementptr inbounds nuw i8, ptr %14, i64 7
  %39 = load i8, ptr %38, align 1, !tbaa !4
  %40 = zext i8 %39 to i64
  %41 = shl nuw nsw i64 %40, 8
  %42 = or disjoint i64 %37, %41
  %43 = getelementptr inbounds nuw i8, ptr %14, i64 6
  %44 = load i8, ptr %43, align 1, !tbaa !4
  %45 = zext i8 %44 to i64
  %46 = or i64 %42, %45
  store i64 %46, ptr %1, align 8, !tbaa !185
  %47 = getelementptr inbounds nuw i8, ptr %14, i64 8
  store ptr %47, ptr %0, align 8, !tbaa !187
  %48 = add nsw i64 %11, -8
  store i64 %48, ptr %6, align 8, !tbaa !188
  %49 = add nsw i32 %8, 64
  store i32 %49, ptr %3, align 8, !tbaa !183
  br label %.loopexit

50:                                               ; preds = %7
  %51 = load i64, ptr %6, align 8, !tbaa !188
  %52 = icmp sgt i64 %51, 5
  br i1 %52, label %53, label %88

53:                                               ; preds = %50
  %54 = load i64, ptr %1, align 8, !tbaa !185
  %55 = shl i64 %54, 48
  %56 = load ptr, ptr %0, align 8, !tbaa !187
  %57 = getelementptr inbounds nuw i8, ptr %56, i64 1
  %58 = load i8, ptr %57, align 1, !tbaa !4
  %59 = zext i8 %58 to i64
  %60 = shl nuw nsw i64 %59, 40
  %61 = or disjoint i64 %60, %55
  %62 = load i8, ptr %56, align 1, !tbaa !4
  %63 = zext i8 %62 to i64
  %64 = shl nuw nsw i64 %63, 32
  %65 = or disjoint i64 %61, %64
  %66 = getelementptr inbounds nuw i8, ptr %56, i64 3
  %67 = load i8, ptr %66, align 1, !tbaa !4
  %68 = zext i8 %67 to i64
  %69 = shl nuw nsw i64 %68, 24
  %70 = or disjoint i64 %65, %69
  %71 = getelementptr inbounds nuw i8, ptr %56, i64 2
  %72 = load i8, ptr %71, align 1, !tbaa !4
  %73 = zext i8 %72 to i64
  %74 = shl nuw nsw i64 %73, 16
  %75 = or disjoint i64 %70, %74
  %76 = getelementptr inbounds nuw i8, ptr %56, i64 5
  %77 = load i8, ptr %76, align 1, !tbaa !4
  %78 = zext i8 %77 to i64
  %79 = shl nuw nsw i64 %78, 8
  %80 = or disjoint i64 %75, %79
  %81 = getelementptr inbounds nuw i8, ptr %56, i64 4
  %82 = load i8, ptr %81, align 1, !tbaa !4
  %83 = zext i8 %82 to i64
  %84 = or i64 %80, %83
  store i64 %84, ptr %1, align 8, !tbaa !185
  %85 = getelementptr inbounds nuw i8, ptr %56, i64 6
  store ptr %85, ptr %0, align 8, !tbaa !187
  %86 = add nsw i64 %51, -6
  store i64 %86, ptr %6, align 8, !tbaa !188
  %87 = add nsw i32 %8, 48
  store i32 %87, ptr %3, align 8, !tbaa !183
  br label %.loopexit

88:                                               ; preds = %._crit_edge, %50, %10
  %89 = phi i64 [ %.pre, %._crit_edge ], [ %51, %50 ], [ %11, %10 ]
  %90 = icmp slt i64 %89, 2
  br i1 %90, label %91, label %99

91:                                               ; preds = %88
  %92 = icmp eq i64 %89, 1
  br i1 %92, label %93, label %.loopexit

93:                                               ; preds = %91
  %94 = load ptr, ptr %0, align 8, !tbaa !187
  %95 = getelementptr inbounds nuw i8, ptr %94, i64 1
  store ptr %95, ptr %0, align 8, !tbaa !187
  %96 = load i8, ptr %94, align 1, !tbaa !4
  %97 = getelementptr inbounds nuw i8, ptr %1, i64 12
  store i8 %96, ptr %97, align 4, !tbaa !186
  store i64 0, ptr %6, align 8, !tbaa !188
  %98 = getelementptr inbounds nuw i8, ptr %1, i64 13
  store i8 1, ptr %98, align 1, !tbaa !184
  br label %.loopexit

99:                                               ; preds = %88
  %100 = load i64, ptr %1, align 8, !tbaa !185
  %101 = shl i64 %100, 16
  %102 = load ptr, ptr %0, align 8, !tbaa !187
  %.val = load i16, ptr %102, align 1
  %103 = zext i16 %.val to i64
  %104 = or disjoint i64 %101, %103
  store i64 %104, ptr %1, align 8, !tbaa !185
  %105 = getelementptr inbounds nuw i8, ptr %102, i64 2
  store ptr %105, ptr %0, align 8, !tbaa !187
  %106 = add nsw i64 %89, -2
  store i64 %106, ptr %6, align 8, !tbaa !188
  %107 = add nsw i32 %8, 16
  store i32 %107, ptr %3, align 8, !tbaa !183
  %108 = add nsw i32 %.0, -16
  br label %7

.loopexit:                                        ; preds = %7, %91, %93, %53, %13
  %.040 = phi i32 [ 1, %53 ], [ 1, %13 ], [ 0, %93 ], [ 0, %91 ], [ 1, %7 ]
  ret i32 %.040
}